; Function Attrs: mustprogress uwtable
define dso_local void @_ZN21cmGeneratorExpression22StripEmptyListElementsERKNSt7__cxx1112basic_stringIcSt11char_traitsIcESaIcEEE(ptr dead_on_unwind noalias writable sret(%"class.std::__cxx11::basic_string") align 8 %0, ptr noundef nonnull align 8 dereferenceable(32) %1) local_unnamed_addr #5 align 2 personality ptr @__gxx_personality_v0 {
  %3 = tail call noundef i64 @_ZNKSt7__cxx1112basic_stringIcSt11char_traitsIcESaIcEE4findEcm(ptr noundef nonnull align 8 dereferenceable(32) %1, i8 noundef signext 59, i64 noundef 0) #20
  %4 = icmp eq i64 %3, -1
  br i1 %4, label %5, label %6

5:                                                ; preds = %2
  tail call void @_ZNSt7__cxx1112basic_stringIcSt11char_traitsIcESaIcEEC1ERKS4_(ptr noundef nonnull align 8 dereferenceable(32) %0, ptr noundef nonnull align 8 dereferenceable(32) %1)
  br label %.critedge

6:                                                ; preds = %2
  tail call void @_ZNSt7__cxx1112basic_stringIcSt11char_traitsIcESaIcEEC1Ev(ptr noundef nonnull align 8 dereferenceable(32) %0) #20
  %7 = tail call noundef i64 @_ZNKSt7__cxx1112basic_stringIcSt11char_traitsIcESaIcEE4sizeEv(ptr noundef nonnull align 8 dereferenceable(32) %1) #20
  invoke void @_ZNSt7__cxx1112basic_stringIcSt11char_traitsIcESaIcEE7reserveEm(ptr noundef nonnull align 8 dereferenceable(32) %0, i64 noundef %7)
          to label %8 unwind label %.loopexit.split-lp

8:                                                ; preds = %6
  %9 = tail call noundef ptr @_ZNKSt7__cxx1112basic_stringIcSt11char_traitsIcESaIcEE5c_strEv(ptr noundef nonnull align 8 dereferenceable(32) %1) #20
  %10 = load i8, ptr %9, align 1
  %.not23 = icmp eq i8 %10, 0
  br i1 %.not23, label %._crit_edge, label %.lr.ph

.lr.ph:                                           ; preds = %8, %21
  %11 = phi i8 [ %23, %21 ], [ %10, %8 ]
  %.026 = phi i1 [ %12, %21 ], [ true, %8 ]
  %.01625 = phi ptr [ %.2, %21 ], [ %9, %8 ]
  %.01824 = phi ptr [ %22, %21 ], [ %9, %8 ]
  %12 = icmp eq i8 %11, 59
  %brmerge.demorgan = and i1 %.026, %12
  br i1 %brmerge.demorgan, label %13, label %21

13:                                               ; preds = %.lr.ph
  %14 = ptrtoint ptr %.01824 to i64
  %15 = ptrtoint ptr %.01625 to i64
  %16 = sub i64 %14, %15
  %17 = invoke noundef nonnull align 8 dereferenceable(32) ptr @_ZNSt7__cxx1112basic_stringIcSt11char_traitsIcESaIcEE6appendEPKcm(ptr noundef nonnull align 8 dereferenceable(32) %0, ptr noundef %.01625, i64 noundef %16)
          to label %18 unwind label %.loopexit

18:                                               ; preds = %13
  %19 = getelementptr inbounds nuw i8, ptr %.01824, i64 1
  br label %21

.loopexit:                                        ; preds = %13
  %lpad.loopexit = landingpad { ptr, i32 }
          cleanup
  br label %20

.loopexit.split-lp:                               ; preds = %6, %._crit_edge, %32
  %lpad.loopexit.split-lp = landingpad { ptr, i32 }
          cleanup
  br label %20

20:                                               ; preds = %.loopexit.split-lp, %.loopexit
  %lpad.phi = phi { ptr, i32 } [ %lpad.loopexit, %.loopexit ], [ %lpad.loopexit.split-lp, %.loopexit.split-lp ]
  tail call void @_ZNSt7__cxx1112basic_stringIcSt11char_traitsIcESaIcEED1Ev(ptr noundef nonnull align 8 dereferenceable(32) %0) #20
  resume { ptr, i32 } %lpad.phi

21:                                               ; preds = %.lr.ph, %18
  %.2 = phi ptr [ %19, %18 ], [ %.01625, %.lr.ph ]
  %22 = getelementptr inbounds nuw i8, ptr %.01824, i64 1
  %23 = load i8, ptr %22, align 1
  %.not = icmp eq i8 %23, 0
  br i1 %.not, label %._crit_edge, label %.lr.ph, !llvm.loop !30

._crit_edge:                                      ; preds = %21, %8
  %.016.lcssa = phi ptr [ %9, %8 ], [ %.2, %21 ]
  %24 = invoke noundef nonnull align 8 dereferenceable(32) ptr @_ZNSt7__cxx1112basic_stringIcSt11char_traitsIcESaIcEE6appendEPKc(ptr noundef nonnull align 8 dereferenceable(32) %0, ptr noundef %.016.lcssa)
          to label %25 unwind label %.loopexit.split-lp

25:                                               ; preds = %._crit_edge
  %26 = tail call noundef zeroext i1 @_ZNKSt7__cxx1112basic_stringIcSt11char_traitsIcESaIcEE5emptyEv(ptr noundef nonnull align 8 dereferenceable(32) %0) #20
  br i1 %26, label %.critedge, label %27

27:                                               ; preds = %25
  %28 = tail call ptr @_ZNSt7__cxx1112basic_stringIcSt11char_traitsIcESaIcEE3endEv(ptr noundef nonnull align 8 dereferenceable(32) %0) #20
  %29 = getelementptr inbounds i8, ptr %28, i64 -1
  %30 = load i8, ptr %29, align 1
  %31 = icmp eq i8 %30, 59
  br i1 %31, label %32, label %.critedge

32:                                               ; preds = %27
  %33 = tail call noundef i64 @_ZNKSt7__cxx1112basic_stringIcSt11char_traitsIcESaIcEE4sizeEv(ptr noundef nonnull align 8 dereferenceable(32) %0) #20
  %34 = add i64 %33, -1
  invoke void @_ZNSt7__cxx1112basic_stringIcSt11char_traitsIcESaIcEE6resizeEm(ptr noundef nonnull align 8 dereferenceable(32) %0, i64 noundef %34)
          to label %.critedge unwind label %.loopexit.split-lp

.critedge:                                        ; preds = %27, %32, %25, %5
  ret void
}